; ModuleID = '8/845.c'
source_filename = "8/845.c"
target datalayout = "e-m:e-p270:32:32-p271:32:32-p272:64:64-i64:64-f80:128-n8:16:32:64-S128"
target triple = "x86_64-pc-linux-gnu"

@.str = private unnamed_addr constant [6 x i8] c"%d %d\00", align 1
@.str.1 = private unnamed_addr constant [3 x i8] c"%d\00", align 1
@.str.2 = private unnamed_addr constant [4 x i8] c"%d \00", align 1
@.str.3 = private unnamed_addr constant [2 x i8] c" \00", align 1

; Function Attrs: noinline nounwind uwtable
define dso_local i32 @main() #0 {
  %1 = alloca i32, align 4
  %2 = alloca [100 x i32], align 16
  %3 = alloca [100 x i32], align 16
  store i32 0, i32* %1, align 4
  %4 = getelementptr inbounds [100 x i32], [100 x i32]* %2, i64 0, i64 0
  %5 = getelementptr inbounds [100 x i32], [100 x i32]* %3, i64 0, i64 0
  call void @print(i32* %4, i32* %5)
  ret i32 0
}

; Function Attrs: noinline nounwind uwtable
define dso_local void @print(i32* %0, i32* %1) #0 {
  %3 = alloca i32*, align 8
  %4 = alloca i32*, align 8
  %5 = alloca i32, align 4
  %6 = alloca i32, align 4
  %7 = alloca i32, align 4
  %8 = alloca i32, align 4
  %9 = alloca i32, align 4
  %10 = alloca i32, align 4
  store i32* %0, i32** %3, align 8
  store i32* %1, i32** %4, align 8
  store i32 0, i32* %10, align 4
  %11 = call i32 (i8*, ...) @__isoc99_scanf(i8* getelementptr inbounds ([6 x i8], [6 x i8]* @.str, i64 0, i64 0), i32* %5, i32* %6)
  store i32 0, i32* %7, align 4
  br label %12

12:                                               ; preds = %22, %2
  %13 = load i32, i32* %7, align 4
  %14 = load i32, i32* %5, align 4
  %15 = icmp slt i32 %13, %14
  br i1 %15, label %16, label %25

16:                                               ; preds = %12
  %17 = load i32*, i32** %3, align 8
  %18 = load i32, i32* %7, align 4
  %19 = sext i32 %18 to i64
  %20 = getelementptr inbounds i32, i32* %17, i64 %19
  %21 = call i32 (i8*, ...) @__isoc99_scanf(i8* getelementptr inbounds ([3 x i8], [3 x i8]* @.str.1, i64 0, i64 0), i32* %20)
  br label %22

22:                                               ; preds = %16
  %23 = load i32, i32* %7, align 4
  %24 = add nsw i32 %23, 1
  store i32 %24, i32* %7, align 4
  br label %12

25:                                               ; preds = %12
  store i32 0, i32* %7, align 4
  br label %26

26:                                               ; preds = %36, %25
  %27 = load i32, i32* %7, align 4
  %28 = load i32, i32* %6, align 4
  %29 = icmp slt i32 %27, %28
  br i1 %29, label %30, label %39

30:                                               ; preds = %26
  %31 = load i32*, i32** %4, align 8
  %32 = load i32, i32* %7, align 4
  %33 = sext i32 %32 to i64
  %34 = getelementptr inbounds i32, i32* %31, i64 %33
  %35 = call i32 (i8*, ...) @__isoc99_scanf(i8* getelementptr inbounds ([3 x i8], [3 x i8]* @.str.1, i64 0, i64 0), i32* %34)
  br label %36

36:                                               ; preds = %30
  %37 = load i32, i32* %7, align 4
  %38 = add nsw i32 %37, 1
  store i32 %38, i32* %7, align 4
  br label %26

39:                                               ; preds = %26
  store i32 0, i32* %7, align 4
  br label %40

40:                                               ; preds = %93, %39
  %41 = load i32, i32* %7, align 4
  %42 = load i32, i32* %5, align 4
  %43 = sub nsw i32 %42, 1
  %44 = icmp slt i32 %41, %43
  br i1 %44, label %45, label %96

45:                                               ; preds = %40
  store i32 0, i32* %8, align 4
  br label %46

46:                                               ; preds = %89, %45
  %47 = load i32, i32* %8, align 4
  %48 = load i32, i32* %5, align 4
  %49 = sub nsw i32 %48, 1
  %50 = load i32, i32* %7, align 4
  %51 = sub nsw i32 %49, %50
  %52 = icmp slt i32 %47, %51
  br i1 %52, label %53, label %92

53:                                               ; preds = %46
  %54 = load i32*, i32** %3, align 8
  %55 = load i32, i32* %8, align 4
  %56 = sext i32 %55 to i64
  %57 = getelementptr inbounds i32, i32* %54, i64 %56
  %58 = load i32, i32* %57, align 4
  %59 = load i32*, i32** %3, align 8
  %60 = load i32, i32* %8, align 4
  %61 = add nsw i32 %60, 1
  %62 = sext i32 %61 to i64
  %63 = getelementptr inbounds i32, i32* %59, i64 %62
  %64 = load i32, i32* %63, align 4
  %65 = icmp sgt i32 %58, %64
  br i1 %65, label %66, label %88

66:                                               ; preds = %53
  %67 = load i32*, i32** %3, align 8
  %68 = load i32, i32* %8, align 4
  %69 = sext i32 %68 to i64
  %70 = getelementptr inbounds i32, i32* %67, i64 %69
  %71 = load i32, i32* %70, align 4
  store i32 %71, i32* %9, align 4
  %72 = load i32*, i32** %3, align 8
  %73 = load i32, i32* %8, align 4
  %74 = add nsw i32 %73, 1
  %75 = sext i32 %74 to i64
  %76 = getelementptr inbounds i32, i32* %72, i64 %75
  %77 = load i32, i32* %76, align 4
  %78 = load i32*, i32** %3, align 8
  %79 = load i32, i32* %8, align 4
  %80 = sext i32 %79 to i64
  %81 = getelementptr inbounds i32, i32* %78, i64 %80
  store i32 %77, i32* %81, align 4
  %82 = load i32, i32* %9, align 4
  %83 = load i32*, i32** %3, align 8
  %84 = load i32, i32* %8, align 4
  %85 = add nsw i32 %84, 1
  %86 = sext i32 %85 to i64
  %87 = getelementptr inbounds i32, i32* %83, i64 %86
  store i32 %82, i32* %87, align 4
  br label %88

88:                                               ; preds = %66, %53
  br label %89

89:                                               ; preds = %88
  %90 = load i32, i32* %8, align 4
  %91 = add nsw i32 %90, 1
  store i32 %91, i32* %8, align 4
  br label %46

92:                                               ; preds = %46
  br label %93

93:                                               ; preds = %92
  %94 = load i32, i32* %7, align 4
  %95 = add nsw i32 %94, 1
  store i32 %95, i32* %7, align 4
  br label %40

96:                                               ; preds = %40
  store i32 0, i32* %7, align 4
  br label %97

97:                                               ; preds = %150, %96
  %98 = load i32, i32* %7, align 4
  %99 = load i32, i32* %6, align 4
  %100 = sub nsw i32 %99, 1
  %101 = icmp slt i32 %98, %100
  br i1 %101, label %102, label %153

102:                                              ; preds = %97
  store i32 0, i32* %8, align 4
  br label %103

103:                                              ; preds = %146, %102
  %104 = load i32, i32* %8, align 4
  %105 = load i32, i32* %6, align 4
  %106 = sub nsw i32 %105, 1
  %107 = load i32, i32* %7, align 4
  %108 = sub nsw i32 %106, %107
  %109 = icmp slt i32 %104, %108
  br i1 %109, label %110, label %149

110:                                              ; preds = %103
  %111 = load i32*, i32** %4, align 8
  %112 = load i32, i32* %8, align 4
  %113 = sext i32 %112 to i64
  %114 = getelementptr inbounds i32, i32* %111, i64 %113
  %115 = load i32, i32* %114, align 4
  %116 = load i32*, i32** %4, align 8
  %117 = load i32, i32* %8, align 4
  %118 = add nsw i32 %117, 1
  %119 = sext i32 %118 to i64
  %120 = getelementptr inbounds i32, i32* %116, i64 %119
  %121 = load i32, i32* %120, align 4
  %122 = icmp sgt i32 %115, %121
  br i1 %122, label %123, label %145

123:                                              ; preds = %110
  %124 = load i32*, i32** %4, align 8
  %125 = load i32, i32* %8, align 4
  %126 = sext i32 %125 to i64
  %127 = getelementptr inbounds i32, i32* %124, i64 %126
  %128 = load i32, i32* %127, align 4
  store i32 %128, i32* %9, align 4
  %129 = load i32*, i32** %4, align 8
  %130 = load i32, i32* %8, align 4
  %131 = add nsw i32 %130, 1
  %132 = sext i32 %131 to i64
  %133 = getelementptr inbounds i32, i32* %129, i64 %132
  %134 = load i32, i32* %133, align 4
  %135 = load i32*, i32** %4, align 8
  %136 = load i32, i32* %8, align 4
  %137 = sext i32 %136 to i64
  %138 = getelementptr inbounds i32, i32* %135, i64 %137
  store i32 %134, i32* %138, align 4
  %139 = load i32, i32* %9, align 4
  %140 = load i32*, i32** %4, align 8
  %141 = load i32, i32* %8, align 4
  %142 = add nsw i32 %141, 1
  %143 = sext i32 %142 to i64
  %144 = getelementptr inbounds i32, i32* %140, i64 %143
  store i32 %139, i32* %144, align 4
  br label %145

145:                                              ; preds = %123, %110
  br label %146

146:                                              ; preds = %145
  %147 = load i32, i32* %8, align 4
  %148 = add nsw i32 %147, 1
  store i32 %148, i32* %8, align 4
  br label %103

149:                                              ; preds = %103
  br label %150

150:                                              ; preds = %149
  %151 = load i32, i32* %7, align 4
  %152 = add nsw i32 %151, 1
  store i32 %152, i32* %7, align 4
  br label %97

153:                                              ; preds = %97
  store i32 0, i32* %7, align 4
  br label %154

154:                                              ; preds = %165, %153
  %155 = load i32, i32* %7, align 4
  %156 = load i32, i32* %5, align 4
  %157 = icmp slt i32 %155, %156
  br i1 %157, label %158, label %168

158:                                              ; preds = %154
  %159 = load i32*, i32** %3, align 8
  %160 = load i32, i32* %7, align 4
  %161 = sext i32 %160 to i64
  %162 = getelementptr inbounds i32, i32* %159, i64 %161
  %163 = load i32, i32* %162, align 4
  %164 = call i32 (i8*, ...) @printf(i8* getelementptr inbounds ([4 x i8], [4 x i8]* @.str.2, i64 0, i64 0), i32 %163)
  br label %165

165:                                              ; preds = %158
  %166 = load i32, i32* %7, align 4
  %167 = add nsw i32 %166, 1
  store i32 %167, i32* %7, align 4
  br label %154

168:                                              ; preds = %154
  store i32 0, i32* %7, align 4
  br label %169

169:                                              ; preds = %187, %168
  %170 = load i32, i32* %7, align 4
  %171 = load i32, i32* %6, align 4
  %172 = icmp slt i32 %170, %171
  br i1 %172, label %173, label %190

173:                                              ; preds = %169
  %174 = load i32*, i32** %4, align 8
  %175 = load i32, i32* %7, align 4
  %176 = sext i32 %175 to i64
  %177 = getelementptr inbounds i32, i32* %174, i64 %176
  %178 = load i32, i32* %177, align 4
  %179 = call i32 (i8*, ...) @printf(i8* getelementptr inbounds ([3 x i8], [3 x i8]* @.str.1, i64 0, i64 0), i32 %178)
  %180 = load i32, i32* %7, align 4
  %181 = load i32, i32* %6, align 4
  %182 = sub nsw i32 %181, 1
  %183 = icmp eq i32 %180, %182
  br i1 %183, label %184, label %185

184:                                              ; preds = %173
  br label %190

185:                                              ; preds = %173
  %186 = call i32 (i8*, ...) @printf(i8* getelementptr inbounds ([2 x i8], [2 x i8]* @.str.3, i64 0, i64 0))
  br label %187

187:                                              ; preds = %185
  %188 = load i32, i32* %7, align 4
  %189 = add nsw i32 %188, 1
  store i32 %189, i32* %7, align 4
  br label %169

190:                                              ; preds = %184, %169
  ret void
}

declare dso_local i32 @__isoc99_scanf(i8*, ...) #1

declare dso_local i32 @printf(i8*, ...) #1


!llvm.module.flags = !{!0}
!llvm.ident = !{!1}

!0 = !{i32 1, !"wchar_size", i32 4}
!1 = !{!"clang version 10.0.0-4ubuntu1 "}
